target datalayout = "e-m:e-p270:32:32-p271:32:32-p272:64:64-i64:64-i128:128-f80:128-n8:16:32:64-S128"
target triple = "x86_64-unknown-linux-gnu"

%"class.QuantLib::DefaultType" = type { ptr, i32, i32 }

; Function Attrs: mustprogress nounwind uwtable
define linkonce_odr noundef i32 @_ZNK8QuantLib11DefaultType17restructuringTypeEv(ptr noundef nonnull align 8 dereferenceable(16) %this) #3 comdat align 2 {
entry:
  %this.addr = alloca ptr, align 8
  store ptr %this, ptr %this.addr, align 8, !tbaa !3
  %this1 = load ptr, ptr %this.addr, align 8
  %restrType_ = getelementptr inbounds nuw %"class.QuantLib::DefaultType", ptr %this1, i32 0, i32 2
  %0 = load i32, ptr %restrType_, align 4, !tbaa !15
  ret i32 %0
}

; Function Attrs: mustprogress nounwind uwtable
define linkonce_odr noundef i32 @_ZNK8QuantLib11DefaultType11defaultTypeEv(ptr noundef nonnull align 8 dereferenceable(16) %this) #3 comdat align 2 {
entry:
  %this.addr = alloca ptr, align 8
  store ptr %this, ptr %this.addr, align 8, !tbaa !3
  %this1 = load ptr, ptr %this.addr, align 8
  %defTypes_ = getelementptr inbounds nuw %"class.QuantLib::DefaultType", ptr %this1, i32 0, i32 1
  %0 = load i32, ptr %defTypes_, align 8, !tbaa !13
  ret i32 %0
}

; Function Attrs: mustprogress uwtable
define noundef zeroext i1 @_ZN8QuantLibeqERKNS_11DefaultTypeES2_(ptr noundef nonnull align 8 dereferenceable(16) %lhs, ptr noundef nonnull align 8 dereferenceable(16) %rhs) #0 {
entry:
  %lhs.addr = alloca ptr, align 8
  %rhs.addr = alloca ptr, align 8
  store ptr %lhs, ptr %lhs.addr, align 8, !tbaa !3
  store ptr %rhs, ptr %rhs.addr, align 8, !tbaa !3
  %0 = load ptr, ptr %lhs.addr, align 8, !tbaa !3
  %call = call noundef i32 @_ZNK8QuantLib11DefaultType11defaultTypeEv(ptr noundef nonnull align 8 dereferenceable(16) %0)
  %1 = load ptr, ptr %rhs.addr, align 8, !tbaa !3
  %call1 = call noundef i32 @_ZNK8QuantLib11DefaultType11defaultTypeEv(ptr noundef nonnull align 8 dereferenceable(16) %1)
  %cmp = icmp eq i32 %call, %call1
  br i1 %cmp, label %land.rhs, label %land.end

land.rhs:                                         ; preds = %entry
  %2 = load ptr, ptr %lhs.addr, align 8, !tbaa !3
  %call2 = call noundef i32 @_ZNK8QuantLib11DefaultType17restructuringTypeEv(ptr noundef nonnull align 8 dereferenceable(16) %2)
  %3 = load ptr, ptr %rhs.addr, align 8, !tbaa !3
  %call3 = call noundef i32 @_ZNK8QuantLib11DefaultType17restructuringTypeEv(ptr noundef nonnull align 8 dereferenceable(16) %3)
  %cmp4 = icmp eq i32 %call2, %call3
  br label %land.end

land.end:                                         ; preds = %land.rhs, %entry
  %4 = phi i1 [ false, %entry ], [ %cmp4, %land.rhs ]
  ret i1 %4
}