; Function Attrs: mustprogress nofree norecurse nosync nounwind willreturn memory(argmem: read) uwtable
define noundef zeroext i1 @_ZN8QuantLibeqERKNS_11DefaultTypeES2_(ptr nocapture noundef nonnull readonly align 8 dereferenceable(16) %lhs, ptr nocapture noundef nonnull readonly align 8 dereferenceable(16) %rhs) local_unnamed_addr #6 {
entry:
  %defTypes_.i = getelementptr inbounds nuw i8, ptr %lhs, i64 8
  %0 = load i32, ptr %defTypes_.i, align 8, !tbaa !6
  %defTypes_.i3 = getelementptr inbounds nuw i8, ptr %rhs, i64 8
  %1 = load i32, ptr %defTypes_.i3, align 8, !tbaa !6
  %cmp = icmp eq i32 %0, %1
  %restrType_.i = getelementptr inbounds nuw i8, ptr %lhs, i64 12
  %2 = load i32, ptr %restrType_.i, align 4
  %restrType_.i4 = getelementptr inbounds nuw i8, ptr %rhs, i64 12
  %3 = load i32, ptr %restrType_.i4, align 4
  %cmp4 = icmp eq i32 %2, %3
  %4 = select i1 %cmp, i1 %cmp4, i1 false
  ret i1 %4
}